; Function Attrs: mustprogress uwtable
define hidden noundef zeroext i1 @_ZN4cvc58internal6theory6arrays16ArraysProperties13isWellFoundedENS0_8TypeNodeE(ptr noundef readonly captures(none) %0) local_unnamed_addr #3 align 2 personality ptr @__gxx_personality_v0 {
  %2 = alloca %"class.cvc5::internal::TypeNode", align 8
  %3 = alloca %"class.cvc5::internal::TypeNode", align 8
  call void @llvm.lifetime.start.p0(i64 8, ptr nonnull %2) #17
  tail call void @llvm.experimental.noalias.scope.decl(metadata !161)
  %4 = load ptr, ptr %0, align 8, !tbaa !6, !noalias !161
  %5 = getelementptr inbounds nuw i8, ptr %4, i64 8
  %6 = load i64, ptr %5, align 8, !noalias !161
  %7 = trunc i64 %6 to i32
  %8 = and i32 %7, 1023
  %9 = icmp eq i32 %8, 1023
  %10 = select i1 %9, i32 -1, i32 %8
  %11 = tail call noundef i32 @_ZN4cvc58internal4kind10metaKindOfENS1_6Kind_tE(i32 noundef %10), !noalias !161
  %12 = icmp eq i32 %11, 2
  %13 = getelementptr inbounds nuw i8, ptr %4, i64 24
  %14 = zext i1 %12 to i64
  %15 = getelementptr inbounds nuw [0 x ptr], ptr %13, i64 0, i64 %14
  %16 = load ptr, ptr %15, align 8, !tbaa !19, !noalias !161
  store ptr %16, ptr %2, align 8, !tbaa !6, !alias.scope !161
  %17 = load i64, ptr %16, align 8, !noalias !161
  %18 = lshr i64 %17, 40
  %19 = trunc nuw nsw i64 %18 to i32
  %20 = and i32 %19, 1048575
  %21 = icmp samesign ult i32 %20, 1048574
  br i1 %21, label %22, label %27, !prof !12

22:                                               ; preds = %1
  %23 = add i64 %17, 1099511627776
  %24 = and i64 %23, 1152920405095219200
  %25 = and i64 %17, -1152920405095219201
  %26 = or disjoint i64 %24, %25
  store i64 %26, ptr %16, align 8, !noalias !161
  br label %_ZNK4cvc58internal8TypeNodeixEi.exit

27:                                               ; preds = %1
  %28 = icmp eq i32 %20, 1048574
  br i1 %28, label %29, label %_ZNK4cvc58internal8TypeNodeixEi.exit, !prof !13

29:                                               ; preds = %27
  %30 = or i64 %17, 1152920405095219200
  store i64 %30, ptr %16, align 8, !noalias !161
  tail call void @_ZN4cvc58internal4expr9NodeValue20markRefCountMaxedOutEv(ptr noundef nonnull align 8 dereferenceable(24) %16), !noalias !161
  br label %_ZNK4cvc58internal8TypeNodeixEi.exit

_ZNK4cvc58internal8TypeNodeixEi.exit:             ; preds = %22, %27, %29
  %31 = invoke noundef zeroext i1 @_ZNK4cvc58internal8TypeNode13isWellFoundedEv(ptr noundef nonnull align 8 dereferenceable(8) %2)
          to label %32 unwind label %89

32:                                               ; preds = %_ZNK4cvc58internal8TypeNodeixEi.exit
  br i1 %31, label %33, label %.critedge

33:                                               ; preds = %32
  call void @llvm.lifetime.start.p0(i64 8, ptr nonnull %3) #17
  call void @llvm.experimental.noalias.scope.decl(metadata !164)
  %34 = load ptr, ptr %0, align 8, !tbaa !6, !noalias !164
  %35 = getelementptr inbounds nuw i8, ptr %34, i64 8
  %36 = load i64, ptr %35, align 8, !noalias !164
  %37 = trunc i64 %36 to i32
  %38 = and i32 %37, 1023
  %39 = icmp eq i32 %38, 1023
  %40 = select i1 %39, i32 -1, i32 %38
  %41 = invoke noundef i32 @_ZN4cvc58internal4kind10metaKindOfENS1_6Kind_tE(i32 noundef %40)
          to label %.noexc unwind label %91

.noexc:                                           ; preds = %33
  %42 = icmp eq i32 %41, 2
  %spec.select.i.i = select i1 %42, i64 2, i64 1
  %43 = getelementptr inbounds nuw i8, ptr %34, i64 24
  %44 = getelementptr inbounds nuw [0 x ptr], ptr %43, i64 0, i64 %spec.select.i.i
  %45 = load ptr, ptr %44, align 8, !tbaa !19, !noalias !164
  store ptr %45, ptr %3, align 8, !tbaa !6, !alias.scope !164
  %46 = load i64, ptr %45, align 8, !noalias !164
  %47 = lshr i64 %46, 40
  %48 = trunc nuw nsw i64 %47 to i32
  %49 = and i32 %48, 1048575
  %50 = icmp samesign ult i32 %49, 1048574
  br i1 %50, label %51, label %56, !prof !12

51:                                               ; preds = %.noexc
  %52 = add i64 %46, 1099511627776
  %53 = and i64 %52, 1152920405095219200
  %54 = and i64 %46, -1152920405095219201
  %55 = or disjoint i64 %53, %54
  store i64 %55, ptr %45, align 8, !noalias !164
  br label %_ZNK4cvc58internal8TypeNodeixEi.exit13

56:                                               ; preds = %.noexc
  %57 = icmp eq i32 %49, 1048574
  br i1 %57, label %58, label %_ZNK4cvc58internal8TypeNodeixEi.exit13, !prof !13

58:                                               ; preds = %56
  %59 = or i64 %46, 1152920405095219200
  store i64 %59, ptr %45, align 8, !noalias !164
  invoke void @_ZN4cvc58internal4expr9NodeValue20markRefCountMaxedOutEv(ptr noundef nonnull align 8 dereferenceable(24) %45)
          to label %_ZNK4cvc58internal8TypeNodeixEi.exit13 unwind label %91

_ZNK4cvc58internal8TypeNodeixEi.exit13:           ; preds = %56, %51, %58
  %60 = invoke noundef zeroext i1 @_ZNK4cvc58internal8TypeNode13isWellFoundedEv(ptr noundef nonnull align 8 dereferenceable(8) %3)
          to label %61 unwind label %93

61:                                               ; preds = %_ZNK4cvc58internal8TypeNodeixEi.exit13
  %62 = load ptr, ptr %3, align 8, !tbaa !6
  %63 = load i64, ptr %62, align 8
  %64 = and i64 %63, 1152920405095219200
  %.not.i.i = icmp eq i64 %64, 1152920405095219200
  br i1 %.not.i.i, label %_ZN4cvc58internal8TypeNodeD2Ev.exit, label %65, !prof !13

65:                                               ; preds = %61
  %66 = add i64 %63, 1152920405095219200
  %67 = and i64 %66, 1152920405095219200
  %68 = and i64 %63, -1152920405095219201
  %69 = or disjoint i64 %67, %68
  store i64 %69, ptr %62, align 8
  %70 = icmp eq i64 %67, 0
  br i1 %70, label %71, label %_ZN4cvc58internal8TypeNodeD2Ev.exit, !prof !13

71:                                               ; preds = %65
  invoke void @_ZN4cvc58internal4expr9NodeValue15markForDeletionEv(ptr noundef nonnull align 8 dereferenceable(24) %62)
          to label %_ZN4cvc58internal8TypeNodeD2Ev.exit unwind label %72

72:                                               ; preds = %71
  %73 = landingpad { ptr, i32 }
          catch ptr null
  %74 = extractvalue { ptr, i32 } %73, 0
  call void @__clang_call_terminate(ptr %74) #18
  unreachable

_ZN4cvc58internal8TypeNodeD2Ev.exit:              ; preds = %61, %65, %71
  call void @llvm.lifetime.end.p0(i64 8, ptr nonnull %3) #17
  br label %.critedge

.critedge:                                        ; preds = %32, %_ZN4cvc58internal8TypeNodeD2Ev.exit
  %75 = phi i1 [ %60, %_ZN4cvc58internal8TypeNodeD2Ev.exit ], [ false, %32 ]
  %76 = load ptr, ptr %2, align 8, !tbaa !6
  %77 = load i64, ptr %76, align 8
  %78 = and i64 %77, 1152920405095219200
  %.not.i.i14 = icmp eq i64 %78, 1152920405095219200
  br i1 %.not.i.i14, label %_ZN4cvc58internal8TypeNodeD2Ev.exit15, label %79, !prof !13

79:                                               ; preds = %.critedge
  %80 = add i64 %77, 1152920405095219200
  %81 = and i64 %80, 1152920405095219200
  %82 = and i64 %77, -1152920405095219201
  %83 = or disjoint i64 %81, %82
  store i64 %83, ptr %76, align 8
  %84 = icmp eq i64 %81, 0
  br i1 %84, label %85, label %_ZN4cvc58internal8TypeNodeD2Ev.exit15, !prof !13

85:                                               ; preds = %79
  invoke void @_ZN4cvc58internal4expr9NodeValue15markForDeletionEv(ptr noundef nonnull align 8 dereferenceable(24) %76)
          to label %_ZN4cvc58internal8TypeNodeD2Ev.exit15 unwind label %86

86:                                               ; preds = %85
  %87 = landingpad { ptr, i32 }
          catch ptr null
  %88 = extractvalue { ptr, i32 } %87, 0
  call void @__clang_call_terminate(ptr %88) #18
  unreachable

_ZN4cvc58internal8TypeNodeD2Ev.exit15:            ; preds = %.critedge, %79, %85
  call void @llvm.lifetime.end.p0(i64 8, ptr nonnull %2) #17
  ret i1 %75

89:                                               ; preds = %_ZNK4cvc58internal8TypeNodeixEi.exit
  %90 = landingpad { ptr, i32 }
          cleanup
  br label %96

91:                                               ; preds = %58, %33
  %92 = landingpad { ptr, i32 }
          cleanup
  br label %95

93:                                               ; preds = %_ZNK4cvc58internal8TypeNodeixEi.exit13
  %94 = landingpad { ptr, i32 }
          cleanup
  call void @_ZN4cvc58internal8TypeNodeD2Ev(ptr noundef nonnull align 8 dereferenceable(8) %3) #17
  br label %95

95:                                               ; preds = %91, %93
  %.pn = phi { ptr, i32 } [ %94, %93 ], [ %92, %91 ]
  call void @llvm.lifetime.end.p0(i64 8, ptr nonnull %3) #17
  br label %96

96:                                               ; preds = %95, %89
  %.pn.pn = phi { ptr, i32 } [ %.pn, %95 ], [ %90, %89 ]
  call void @_ZN4cvc58internal8TypeNodeD2Ev(ptr noundef nonnull align 8 dereferenceable(8) %2) #17
  call void @llvm.lifetime.end.p0(i64 8, ptr nonnull %2) #17
  resume { ptr, i32 } %.pn.pn
}